; Function Attrs: nounwind uwtable
define noalias noundef ptr @Bac_PtrTransformSigs(ptr noundef readonly captures(none) %0) local_unnamed_addr #0 {
  %2 = getelementptr i8, ptr %0, i64 4
  %.val9 = load i32, ptr %2, align 4
  %3 = tail call noalias dereferenceable_or_null(16) ptr @malloc(i64 noundef 16) #15
  %4 = getelementptr inbounds nuw i8, ptr %3, i64 4
  store i32 0, ptr %4, align 4
  store i32 %.val9, ptr %3, align 8
  %.not.i = icmp eq i32 %.val9, 0
  br i1 %.not.i, label %Vec_PtrAllocExact.exit.thread, label %Vec_PtrAllocExact.exit

Vec_PtrAllocExact.exit.thread:                    ; preds = %1
  %5 = getelementptr inbounds nuw i8, ptr %3, i64 8
  store ptr null, ptr %5, align 8
  br label %.critedge

Vec_PtrAllocExact.exit:                           ; preds = %1
  %6 = sext i32 %.val9 to i64
  %7 = shl nsw i64 %6, 3
  %8 = tail call noalias ptr @malloc(i64 noundef %7) #15
  %9 = getelementptr inbounds nuw i8, ptr %3, i64 8
  store ptr %8, ptr %9, align 8
  %10 = icmp sgt i32 %.val9, 0
  br i1 %10, label %.lr.ph, label %.critedge

.lr.ph:                                           ; preds = %Vec_PtrAllocExact.exit
  %11 = getelementptr i8, ptr %0, i64 8
  br label %12

12:                                               ; preds = %.lr.ph, %Vec_PtrPush.exit
  %indvars.iv = phi i64 [ 0, %.lr.ph ], [ %indvars.iv.next, %Vec_PtrPush.exit ]
  %.val = load ptr, ptr %11, align 8
  %13 = getelementptr inbounds nuw ptr, ptr %.val, i64 %indvars.iv
  %14 = load ptr, ptr %13, align 8
  %.not.i10 = icmp eq ptr %14, null
  br i1 %.not.i10, label %Abc_UtilStrsav.exit, label %15

15:                                               ; preds = %12
  %16 = tail call i64 @strlen(ptr noundef nonnull readonly dereferenceable(1) %14) #16
  %17 = add i64 %16, 1
  %18 = tail call noalias ptr @malloc(i64 noundef %17) #15
  %19 = tail call ptr @strcpy(ptr noundef nonnull dereferenceable(1) %18, ptr noundef nonnull readonly dereferenceable(1) %14) #14
  br label %Abc_UtilStrsav.exit

Abc_UtilStrsav.exit:                              ; preds = %12, %15
  %20 = phi ptr [ %18, %15 ], [ null, %12 ]
  %21 = load i32, ptr %4, align 4
  %22 = load i32, ptr %3, align 8
  %23 = icmp eq i32 %21, %22
  br i1 %23, label %24, label %.Vec_PtrGrow.exit11_crit_edge.i

.Vec_PtrGrow.exit11_crit_edge.i:                  ; preds = %Abc_UtilStrsav.exit
  %.pre.i = load ptr, ptr %9, align 8
  br label %Vec_PtrPush.exit

24:                                               ; preds = %Abc_UtilStrsav.exit
  %25 = icmp slt i32 %21, 16
  br i1 %25, label %26, label %33

26:                                               ; preds = %24
  %27 = load ptr, ptr %9, align 8
  %.not9.i.i = icmp eq ptr %27, null
  br i1 %.not9.i.i, label %30, label %28

28:                                               ; preds = %26
  %29 = tail call dereferenceable_or_null(128) ptr @realloc(ptr noundef nonnull %27, i64 noundef 128) #17
  br label %Vec_PtrGrow.exit.i

30:                                               ; preds = %26
  %31 = tail call noalias dereferenceable_or_null(128) ptr @malloc(i64 noundef 128) #15
  br label %Vec_PtrGrow.exit.i

Vec_PtrGrow.exit.i:                               ; preds = %30, %28
  %32 = phi ptr [ %29, %28 ], [ %31, %30 ]
  store ptr %32, ptr %9, align 8
  store i32 16, ptr %3, align 8
  br label %Vec_PtrPush.exit

33:                                               ; preds = %24
  %34 = shl nuw nsw i32 %21, 1
  %35 = load ptr, ptr %9, align 8
  %.not9.i10.i = icmp eq ptr %35, null
  %36 = zext nneg i32 %34 to i64
  %37 = shl nuw nsw i64 %36, 3
  br i1 %.not9.i10.i, label %40, label %38

38:                                               ; preds = %33
  %39 = tail call ptr @realloc(ptr noundef nonnull %35, i64 noundef %37) #17
  br label %42

40:                                               ; preds = %33
  %41 = tail call noalias ptr @malloc(i64 noundef %37) #15
  br label %42

42:                                               ; preds = %40, %38
  %43 = phi ptr [ %39, %38 ], [ %41, %40 ]
  store ptr %43, ptr %9, align 8
  store i32 %34, ptr %3, align 8
  br label %Vec_PtrPush.exit

Vec_PtrPush.exit:                                 ; preds = %.Vec_PtrGrow.exit11_crit_edge.i, %Vec_PtrGrow.exit.i, %42
  %44 = phi ptr [ %.pre.i, %.Vec_PtrGrow.exit11_crit_edge.i ], [ %43, %42 ], [ %32, %Vec_PtrGrow.exit.i ]
  %45 = add nsw i32 %21, 1
  store i32 %45, ptr %4, align 4
  %46 = sext i32 %21 to i64
  %47 = getelementptr inbounds ptr, ptr %44, i64 %46
  store ptr %20, ptr %47, align 8
  %indvars.iv.next = add nuw nsw i64 %indvars.iv, 1
  %.val8 = load i32, ptr %2, align 4
  %48 = sext i32 %.val8 to i64
  %49 = icmp slt i64 %indvars.iv.next, %48
  br i1 %49, label %12, label %.critedge, !llvm.loop !18

.critedge:                                        ; preds = %Vec_PtrPush.exit, %Vec_PtrAllocExact.exit.thread, %Vec_PtrAllocExact.exit
  ret ptr %3
}